target datalayout = "e-m:e-p270:32:32-p271:32:32-p272:64:64-i64:64-i128:128-f80:128-n8:16:32:64-S128"
target triple = "x86_64-unknown-linux-gnu"

; Function Attrs: nounwind sspstrong uwtable
define internal i32 @ctpop64(i64 noundef %val) #0 {
entry:
  %val.addr = alloca i64, align 8
  store i64 %val, ptr %val.addr, align 8
  %0 = load i64, ptr %val.addr, align 8
  %1 = call i64 @llvm.ctpop.i64(i64 %0)
  %cast = trunc i64 %1 to i32
  ret i32 %cast
}

; Function Attrs: nounwind sspstrong uwtable
define dso_local i64 @slow_bitmap_count_one(ptr noundef %bitmap, i64 noundef %nbits) #0 {
entry:
  %bitmap.addr = alloca ptr, align 8
  %nbits.addr = alloca i64, align 8
  %k = alloca i64, align 8
  %lim = alloca i64, align 8
  %result = alloca i64, align 8
  store ptr %bitmap, ptr %bitmap.addr, align 8
  store i64 %nbits, ptr %nbits.addr, align 8
  %0 = load i64, ptr %nbits.addr, align 8
  %div = udiv i64 %0, 64
  store i64 %div, ptr %lim, align 8
  store i64 0, ptr %result, align 8
  store i64 0, ptr %k, align 8
  br label %for.cond

for.cond:                                         ; preds = %for.inc, %entry
  %1 = load i64, ptr %k, align 8
  %2 = load i64, ptr %lim, align 8
  %cmp = icmp slt i64 %1, %2
  br i1 %cmp, label %for.body, label %for.end

for.body:                                         ; preds = %for.cond
  %3 = load ptr, ptr %bitmap.addr, align 8
  %4 = load i64, ptr %k, align 8
  %arrayidx = getelementptr i64, ptr %3, i64 %4
  %5 = load i64, ptr %arrayidx, align 8
  %call = call i32 @ctpop64(i64 noundef %5)
  %conv = sext i32 %call to i64
  %6 = load i64, ptr %result, align 8
  %add = add i64 %6, %conv
  store i64 %add, ptr %result, align 8
  br label %for.inc

for.inc:                                          ; preds = %for.body
  %7 = load i64, ptr %k, align 8
  %inc = add i64 %7, 1
  store i64 %inc, ptr %k, align 8
  br label %for.cond, !llvm.loop !23

for.end:                                          ; preds = %for.cond
  %8 = load i64, ptr %nbits.addr, align 8
  %rem = urem i64 %8, 64
  %tobool = icmp ne i64 %rem, 0
  br i1 %tobool, label %if.then, label %if.end

if.then:                                          ; preds = %for.end
  %9 = load ptr, ptr %bitmap.addr, align 8
  %10 = load i64, ptr %k, align 8
  %arrayidx1 = getelementptr i64, ptr %9, i64 %10
  %11 = load i64, ptr %arrayidx1, align 8
  %12 = load i64, ptr %nbits.addr, align 8
  %sub = sub i64 0, %12
  %and = and i64 %sub, 63
  %shr = lshr i64 -1, %and
  %and2 = and i64 %11, %shr
  %call3 = call i32 @ctpop64(i64 noundef %and2)
  %conv4 = sext i32 %call3 to i64
  %13 = load i64, ptr %result, align 8
  %add5 = add i64 %13, %conv4
  store i64 %add5, ptr %result, align 8
  br label %if.end

if.end:                                           ; preds = %if.then, %for.end
  %14 = load i64, ptr %result, align 8
  ret i64 %14
}