; Function Attrs: nofree norecurse nosync nounwind sspstrong memory(argmem: read) uwtable
define dso_local i64 @slow_bitmap_count_one(ptr noundef readonly captures(none) %bitmap, i64 noundef %nbits) local_unnamed_addr #0 {
entry:
  %div9 = lshr i64 %nbits, 6
  %cmp11.not = icmp ult i64 %nbits, 64
  br i1 %cmp11.not, label %for.end, label %for.body

for.body:                                         ; preds = %entry, %for.body
  %result.013 = phi i64 [ %add, %for.body ], [ 0, %entry ]
  %k.012 = phi i64 [ %inc, %for.body ], [ 0, %entry ]
  %arrayidx = getelementptr i64, ptr %bitmap, i64 %k.012
  %0 = load i64, ptr %arrayidx, align 8
  %1 = tail call range(i64 0, 65) i64 @llvm.ctpop.i64(i64 %0)
  %add = add i64 %1, %result.013
  %inc = add nuw nsw i64 %k.012, 1
  %exitcond.not = icmp eq i64 %inc, %div9
  br i1 %exitcond.not, label %for.end, label %for.body, !llvm.loop !20

for.end:                                          ; preds = %for.body, %entry
  %k.0.lcssa = phi i64 [ 0, %entry ], [ %div9, %for.body ]
  %result.0.lcssa = phi i64 [ 0, %entry ], [ %add, %for.body ]
  %rem = and i64 %nbits, 63
  %tobool.not = icmp eq i64 %rem, 0
  br i1 %tobool.not, label %if.end, label %if.then

if.then:                                          ; preds = %for.end
  %arrayidx1 = getelementptr i64, ptr %bitmap, i64 %k.0.lcssa
  %2 = load i64, ptr %arrayidx1, align 8
  %sub = sub i64 0, %nbits
  %and = and i64 %sub, 63
  %shr = lshr i64 -1, %and
  %and2 = and i64 %2, %shr
  %3 = tail call range(i64 0, 65) i64 @llvm.ctpop.i64(i64 %and2)
  %add5 = add i64 %3, %result.0.lcssa
  br label %if.end

if.end:                                           ; preds = %if.then, %for.end
  %result.1 = phi i64 [ %add5, %if.then ], [ %result.0.lcssa, %for.end ]
  ret i64 %result.1
}